target datalayout = "e-m:e-p270:32:32-p271:32:32-p272:64:64-i64:64-i128:128-f80:128-n8:16:32:64-S128"
target triple = "x86_64-pc-linux-gnu"

%struct.slurmdb_user_rec = type { i16, ptr, ptr, ptr, ptr, ptr, i32, ptr, ptr, i32, ptr }
%struct.slurmdb_assoc_cond_t = type { ptr, ptr, ptr, i32, ptr, ptr, ptr, ptr, ptr, i64, i64, ptr }

@my_user_name = external global ptr, align 8
@.str.83 = private unnamed_addr constant [5 x i8] c"root\00", align 1

; Function Attrs: nounwind uwtable
define internal i32 @_foreach_user_list(ptr noundef %0, ptr noundef %1) #0 {
  %3 = alloca i32, align 4
  %4 = alloca ptr, align 8
  %5 = alloca ptr, align 8
  %6 = alloca ptr, align 8
  %7 = alloca ptr, align 8
  %8 = alloca i32, align 4
  store ptr %0, ptr %4, align 8
  store ptr %1, ptr %5, align 8
  call void @llvm.lifetime.start.p0(i64 8, ptr %6) #9
  %9 = load ptr, ptr %4, align 8
  store ptr %9, ptr %6, align 8
  call void @llvm.lifetime.start.p0(i64 8, ptr %7) #9
  %10 = load ptr, ptr %5, align 8
  store ptr %10, ptr %7, align 8
  %11 = load ptr, ptr %6, align 8
  %12 = getelementptr inbounds nuw %struct.slurmdb_user_rec, ptr %11, i32 0, i32 7
  %13 = load ptr, ptr %12, align 8
  %14 = load ptr, ptr @my_user_name, align 8
  %15 = call i32 @xstrcmp(ptr noundef %13, ptr noundef %14)
  %16 = icmp ne i32 %15, 0
  br i1 %16, label %17, label %23

17:                                               ; preds = %2
  %18 = load ptr, ptr %6, align 8
  %19 = getelementptr inbounds nuw %struct.slurmdb_user_rec, ptr %18, i32 0, i32 7
  %20 = load ptr, ptr %19, align 8
  %21 = call i32 @xstrcmp(ptr noundef %20, ptr noundef @.str.83)
  %22 = icmp ne i32 %21, 0
  br i1 %22, label %24, label %23

23:                                               ; preds = %17, %2
  store i32 0, ptr %3, align 4
  store i32 1, ptr %8, align 4
  br label %40

24:                                               ; preds = %17
  %25 = load ptr, ptr %7, align 8
  %26 = getelementptr inbounds nuw %struct.slurmdb_assoc_cond_t, ptr %25, i32 0, i32 11
  %27 = load ptr, ptr %26, align 8
  %28 = icmp ne ptr %27, null
  br i1 %28, label %33, label %29

29:                                               ; preds = %24
  %30 = call ptr @list_create(ptr noundef @xfree_ptr)
  %31 = load ptr, ptr %7, align 8
  %32 = getelementptr inbounds nuw %struct.slurmdb_assoc_cond_t, ptr %31, i32 0, i32 11
  store ptr %30, ptr %32, align 8
  br label %33

33:                                               ; preds = %29, %24
  %34 = load ptr, ptr %7, align 8
  %35 = getelementptr inbounds nuw %struct.slurmdb_assoc_cond_t, ptr %34, i32 0, i32 11
  %36 = load ptr, ptr %35, align 8
  %37 = load ptr, ptr %6, align 8
  %38 = getelementptr inbounds nuw %struct.slurmdb_user_rec, ptr %37, i32 0, i32 7
  %39 = load ptr, ptr %38, align 8
  call void @list_append(ptr noundef %36, ptr noundef %39)
  store i32 0, ptr %3, align 4
  store i32 1, ptr %8, align 4
  br label %40

40:                                               ; preds = %33, %23
  call void @llvm.lifetime.end.p0(i64 8, ptr %7) #9
  call void @llvm.lifetime.end.p0(i64 8, ptr %6) #9
  %41 = load i32, ptr %3, align 4
  ret i32 %41
}