; Function Attrs: nounwind uwtable
define internal noundef i32 @_foreach_user_list(ptr noundef readonly captures(none) %0, ptr noundef captures(none) %1) #0 {
  %3 = getelementptr inbounds nuw i8, ptr %0, i64 56
  %4 = load ptr, ptr %3, align 8
  %5 = load ptr, ptr @my_user_name, align 8
  %6 = tail call i32 @xstrcmp(ptr noundef %4, ptr noundef %5) #12
  %.not = icmp eq i32 %6, 0
  br i1 %.not, label %18, label %7

7:                                                ; preds = %2
  %8 = load ptr, ptr %3, align 8
  %9 = tail call i32 @xstrcmp(ptr noundef %8, ptr noundef nonnull @.str.83) #12
  %.not8 = icmp eq i32 %9, 0
  br i1 %.not8, label %18, label %10

10:                                               ; preds = %7
  %11 = getelementptr inbounds nuw i8, ptr %1, i64 88
  %12 = load ptr, ptr %11, align 8
  %.not9 = icmp eq ptr %12, null
  br i1 %.not9, label %13, label %15

13:                                               ; preds = %10
  %14 = tail call ptr @list_create(ptr noundef nonnull @xfree_ptr) #12
  store ptr %14, ptr %11, align 8
  br label %15

15:                                               ; preds = %13, %10
  %16 = phi ptr [ %14, %13 ], [ %12, %10 ]
  %17 = load ptr, ptr %3, align 8
  tail call void @list_append(ptr noundef %16, ptr noundef %17) #12
  br label %18

18:                                               ; preds = %2, %7, %15
  ret i32 0
}